target datalayout = "e-m:e-p270:32:32-p271:32:32-p272:64:64-i64:64-i128:128-f80:128-n8:16:32:64-S128"
target triple = "x86_64-pc-linux-gnu"

%"struct.QListData::Data" = type { %"class.QtPrivate::RefCount", i32, i32, i32, [1 x ptr] }
%"class.QtPrivate::RefCount" = type { %class.QBasicAtomicInteger }
%class.QBasicAtomicInteger = type { %"struct.std::atomic" }
%"struct.std::atomic" = type { %"struct.std::__atomic_base" }
%"struct.std::__atomic_base" = type { i32 }
%class.GLLogStream = type { %class.QObject, i32, %class.QList, %class.QMultiMap }
%class.QObject = type { ptr, %class.QScopedPointer }
%class.QScopedPointer = type { ptr }
%class.QList = type { %union.anon }
%union.anon = type { %struct.QListData }
%struct.QListData = type { ptr }
%class.QMultiMap = type { %class.QMap }
%class.QMap = type { ptr }
%class.QString = type { ptr }
%"struct.std::pair" = type { i32, %class.QString }
%"struct.QList<std::pair<int, QString>>::Node" = type { ptr }
%"class.QList<std::pair<int, QString>>::const_iterator" = type { ptr }

; Function Attrs: mustprogress nounwind uwtable
define linkonce_odr noundef nonnull align 8 dereferenceable(16) ptr @_ZN5QListISt4pairIi7QStringEE4Node1tEv(ptr noundef nonnull align 8 dereferenceable(8) %0) #2 comdat align 2 {
  %2 = alloca ptr, align 8
  store ptr %0, ptr %2, align 8
  %3 = load ptr, ptr %2, align 8
  %4 = getelementptr inbounds %"struct.QList<std::pair<int, QString>>::Node", ptr %3, i32 0, i32 0
  %5 = load ptr, ptr %4, align 8
  ret ptr %5
}

; Function Attrs: mustprogress nounwind uwtable
define linkonce_odr noundef ptr @_ZNK9QListData3endEv(ptr noundef nonnull align 8 dereferenceable(8) %0) #2 comdat align 2 {
  %2 = alloca ptr, align 8
  store ptr %0, ptr %2, align 8
  %3 = load ptr, ptr %2, align 8
  %4 = getelementptr inbounds %struct.QListData, ptr %3, i32 0, i32 0
  %5 = load ptr, ptr %4, align 8
  %6 = getelementptr inbounds %"struct.QListData::Data", ptr %5, i32 0, i32 4
  %7 = getelementptr inbounds [1 x ptr], ptr %6, i64 0, i64 0
  %8 = getelementptr inbounds %struct.QListData, ptr %3, i32 0, i32 0
  %9 = load ptr, ptr %8, align 8
  %10 = getelementptr inbounds %"struct.QListData::Data", ptr %9, i32 0, i32 3
  %11 = load i32, ptr %10, align 4
  %12 = sext i32 %11 to i64
  %13 = getelementptr inbounds ptr, ptr %7, i64 %12
  ret ptr %13
}

; Function Attrs: mustprogress nounwind uwtable
define linkonce_odr void @_ZN5QListISt4pairIi7QStringEE14const_iteratorC2EPNS3_4NodeE(ptr noundef nonnull align 8 dereferenceable(8) %0, ptr noundef %1) unnamed_addr #2 comdat align 2 {
  %3 = alloca ptr, align 8
  %4 = alloca ptr, align 8
  store ptr %0, ptr %3, align 8
  store ptr %1, ptr %4, align 8
  %5 = load ptr, ptr %3, align 8
  %6 = getelementptr inbounds %"class.QList<std::pair<int, QString>>::const_iterator", ptr %5, i32 0, i32 0
  %7 = load ptr, ptr %4, align 8
  store ptr %7, ptr %6, align 8
  ret void
}

; Function Attrs: mustprogress nounwind uwtable
define linkonce_odr noundef ptr @_ZNK9QListData5beginEv(ptr noundef nonnull align 8 dereferenceable(8) %0) #2 comdat align 2 {
  %2 = alloca ptr, align 8
  store ptr %0, ptr %2, align 8
  %3 = load ptr, ptr %2, align 8
  %4 = getelementptr inbounds %struct.QListData, ptr %3, i32 0, i32 0
  %5 = load ptr, ptr %4, align 8
  %6 = getelementptr inbounds %"struct.QListData::Data", ptr %5, i32 0, i32 4
  %7 = getelementptr inbounds [1 x ptr], ptr %6, i64 0, i64 0
  %8 = getelementptr inbounds %struct.QListData, ptr %3, i32 0, i32 0
  %9 = load ptr, ptr %8, align 8
  %10 = getelementptr inbounds %"struct.QListData::Data", ptr %9, i32 0, i32 2
  %11 = load i32, ptr %10, align 8
  %12 = sext i32 %11 to i64
  %13 = getelementptr inbounds ptr, ptr %7, i64 %12
  ret ptr %13
}

; Function Attrs: mustprogress nounwind uwtable
define linkonce_odr noundef nonnull align 8 dereferenceable(8) ptr @_ZN5QListISt4pairIi7QStringEE14const_iteratorppEv(ptr noundef nonnull align 8 dereferenceable(8) %0) #2 comdat align 2 {
  %2 = alloca ptr, align 8
  store ptr %0, ptr %2, align 8
  %3 = load ptr, ptr %2, align 8
  %4 = getelementptr inbounds %"class.QList<std::pair<int, QString>>::const_iterator", ptr %3, i32 0, i32 0
  %5 = load ptr, ptr %4, align 8
  %6 = getelementptr inbounds %"struct.QList<std::pair<int, QString>>::Node", ptr %5, i32 1
  store ptr %6, ptr %4, align 8
  ret ptr %3
}

; Function Attrs: mustprogress uwtable
define linkonce_odr void @_ZN5QListI7QStringE9push_backERKS0_(ptr noundef nonnull align 8 dereferenceable(8) %0, ptr noundef nonnull align 8 dereferenceable(8) %1) #0 comdat align 2 {
  %3 = alloca ptr, align 8
  %4 = alloca ptr, align 8
  store ptr %0, ptr %3, align 8
  store ptr %1, ptr %4, align 8
  %5 = load ptr, ptr %3, align 8
  %6 = load ptr, ptr %4, align 8
  call void @_ZN5QListI7QStringE6appendERKS0_(ptr noundef nonnull align 8 dereferenceable(8) %5, ptr noundef nonnull align 8 dereferenceable(8) %6)
  ret void
}

; Function Attrs: mustprogress nounwind uwtable
define linkonce_odr noundef nonnull align 8 dereferenceable(16) ptr @_ZNK5QListISt4pairIi7QStringEE14const_iteratordeEv(ptr noundef nonnull align 8 dereferenceable(8) %0) #2 comdat align 2 {
  %2 = alloca ptr, align 8
  store ptr %0, ptr %2, align 8
  %3 = load ptr, ptr %2, align 8
  %4 = getelementptr inbounds %"class.QList<std::pair<int, QString>>::const_iterator", ptr %3, i32 0, i32 0
  %5 = load ptr, ptr %4, align 8
  %6 = call noundef nonnull align 8 dereferenceable(16) ptr @_ZN5QListISt4pairIi7QStringEE4Node1tEv(ptr noundef nonnull align 8 dereferenceable(8) %5)
  ret ptr %6
}

; Function Attrs: mustprogress nounwind uwtable
define linkonce_odr noundef zeroext i1 @_ZNK5QListISt4pairIi7QStringEE14const_iteratorneERKS4_(ptr noundef nonnull align 8 dereferenceable(8) %0, ptr noundef nonnull align 8 dereferenceable(8) %1) #2 comdat align 2 {
  %3 = alloca ptr, align 8
  %4 = alloca ptr, align 8
  store ptr %0, ptr %3, align 8
  store ptr %1, ptr %4, align 8
  %5 = load ptr, ptr %3, align 8
  %6 = getelementptr inbounds %"class.QList<std::pair<int, QString>>::const_iterator", ptr %5, i32 0, i32 0
  %7 = load ptr, ptr %6, align 8
  %8 = load ptr, ptr %4, align 8
  %9 = getelementptr inbounds %"class.QList<std::pair<int, QString>>::const_iterator", ptr %8, i32 0, i32 0
  %10 = load ptr, ptr %9, align 8
  %11 = icmp ne ptr %7, %10
  ret i1 %11
}

; Function Attrs: mustprogress nounwind uwtable
define linkonce_odr void @_ZNK5QListISt4pairIi7QStringEE3endEv(ptr dead_on_unwind noalias writable sret(%"class.QList<std::pair<int, QString>>::const_iterator") align 8 %0, ptr noundef nonnull align 8 dereferenceable(8) %1) #2 comdat align 2 {
  %3 = alloca ptr, align 8
  %4 = alloca ptr, align 8
  store ptr %0, ptr %3, align 8
  store ptr %1, ptr %4, align 8
  %5 = load ptr, ptr %4, align 8
  %6 = getelementptr inbounds %class.QList, ptr %5, i32 0, i32 0
  %7 = call noundef ptr @_ZNK9QListData3endEv(ptr noundef nonnull align 8 dereferenceable(8) %6) #9
  call void @_ZN5QListISt4pairIi7QStringEE14const_iteratorC2EPNS3_4NodeE(ptr noundef nonnull align 8 dereferenceable(8) %0, ptr noundef %7) #9
  ret void
}

; Function Attrs: mustprogress nounwind uwtable
define linkonce_odr void @_ZNK5QListISt4pairIi7QStringEE5beginEv(ptr dead_on_unwind noalias writable sret(%"class.QList<std::pair<int, QString>>::const_iterator") align 8 %0, ptr noundef nonnull align 8 dereferenceable(8) %1) #2 comdat align 2 {
  %3 = alloca ptr, align 8
  %4 = alloca ptr, align 8
  store ptr %0, ptr %3, align 8
  store ptr %1, ptr %4, align 8
  %5 = load ptr, ptr %4, align 8
  %6 = getelementptr inbounds %class.QList, ptr %5, i32 0, i32 0
  %7 = call noundef ptr @_ZNK9QListData5beginEv(ptr noundef nonnull align 8 dereferenceable(8) %6) #9
  call void @_ZN5QListISt4pairIi7QStringEE14const_iteratorC2EPNS3_4NodeE(ptr noundef nonnull align 8 dereferenceable(8) %0, ptr noundef %7) #9
  ret void
}

; Function Attrs: mustprogress uwtable
define void @_ZNK11GLLogStream5printER11QStringList(ptr noundef nonnull align 8 dereferenceable(40) %0, ptr noundef nonnull align 8 dereferenceable(8) %1) #0 align 2 {
  %3 = alloca ptr, align 8
  %4 = alloca ptr, align 8
  %5 = alloca ptr, align 8
  %6 = alloca %"class.QList<std::pair<int, QString>>::const_iterator", align 8
  %7 = alloca %"class.QList<std::pair<int, QString>>::const_iterator", align 8
  %8 = alloca ptr, align 8
  store ptr %0, ptr %3, align 8
  store ptr %1, ptr %4, align 8
  %9 = load ptr, ptr %3, align 8
  %10 = load ptr, ptr %4, align 8
  call void @_ZN5QListI7QStringE5clearEv(ptr noundef nonnull align 8 dereferenceable(8) %10)
  %11 = getelementptr inbounds %class.GLLogStream, ptr %9, i32 0, i32 2
  store ptr %11, ptr %5, align 8
  %12 = load ptr, ptr %5, align 8
  call void @_ZNK5QListISt4pairIi7QStringEE5beginEv(ptr dead_on_unwind writable sret(%"class.QList<std::pair<int, QString>>::const_iterator") align 8 %6, ptr noundef nonnull align 8 dereferenceable(8) %12) #9
  %13 = load ptr, ptr %5, align 8
  call void @_ZNK5QListISt4pairIi7QStringEE3endEv(ptr dead_on_unwind writable sret(%"class.QList<std::pair<int, QString>>::const_iterator") align 8 %7, ptr noundef nonnull align 8 dereferenceable(8) %13) #9
  br label %14

14:                                               ; preds = %21, %2
  %15 = call noundef zeroext i1 @_ZNK5QListISt4pairIi7QStringEE14const_iteratorneERKS4_(ptr noundef nonnull align 8 dereferenceable(8) %6, ptr noundef nonnull align 8 dereferenceable(8) %7) #9
  br i1 %15, label %16, label %23

16:                                               ; preds = %14
  %17 = call noundef nonnull align 8 dereferenceable(16) ptr @_ZNK5QListISt4pairIi7QStringEE14const_iteratordeEv(ptr noundef nonnull align 8 dereferenceable(8) %6)
  store ptr %17, ptr %8, align 8
  %18 = load ptr, ptr %4, align 8
  %19 = load ptr, ptr %8, align 8
  %20 = getelementptr inbounds %"struct.std::pair", ptr %19, i32 0, i32 1
  call void @_ZN5QListI7QStringE9push_backERKS0_(ptr noundef nonnull align 8 dereferenceable(8) %18, ptr noundef nonnull align 8 dereferenceable(8) %20)
  br label %21

21:                                               ; preds = %16
  %22 = call noundef nonnull align 8 dereferenceable(8) ptr @_ZN5QListISt4pairIi7QStringEE14const_iteratorppEv(ptr noundef nonnull align 8 dereferenceable(8) %6)
  br label %14

23:                                               ; preds = %14
  ret void
}