; Function Attrs: mustprogress uwtable
define void @_ZNK11GLLogStream5printER11QStringList(ptr nocapture noundef nonnull readonly align 8 dereferenceable(40) %0, ptr noundef nonnull align 8 dereferenceable(8) %1) local_unnamed_addr #0 align 2 {
  tail call void @_ZN5QListI7QStringE5clearEv(ptr noundef nonnull align 8 dereferenceable(8) %1)
  %3 = getelementptr inbounds i8, ptr %0, i64 24
  %4 = load ptr, ptr %3, align 8, !noalias !10
  %5 = getelementptr inbounds i8, ptr %4, i64 16
  %6 = getelementptr inbounds i8, ptr %4, i64 8
  %7 = load i32, ptr %6, align 8, !noalias !28
  %8 = getelementptr inbounds i8, ptr %4, i64 12
  %9 = load i32, ptr %8, align 4, !noalias !31
  %10 = sext i32 %9 to i64
  %11 = getelementptr inbounds ptr, ptr %5, i64 %10
  %.not9 = icmp eq i32 %7, %9
  br i1 %.not9, label %._crit_edge, label %.lr.ph.preheader

.lr.ph.preheader:                                 ; preds = %2
  %12 = sext i32 %7 to i64
  %13 = getelementptr inbounds ptr, ptr %5, i64 %12
  br label %.lr.ph

.lr.ph:                                           ; preds = %.lr.ph.preheader, %.lr.ph
  %.sroa.06.010 = phi ptr [ %16, %.lr.ph ], [ %13, %.lr.ph.preheader ]
  %14 = load ptr, ptr %.sroa.06.010, align 8
  %15 = getelementptr inbounds i8, ptr %14, i64 8
  tail call void @_ZN5QListI7QStringE6appendERKS0_(ptr noundef nonnull align 8 dereferenceable(8) %1, ptr noundef nonnull align 8 dereferenceable(8) %15)
  %16 = getelementptr inbounds i8, ptr %.sroa.06.010, i64 8
  %.not = icmp eq ptr %16, %11
  br i1 %.not, label %._crit_edge, label %.lr.ph

._crit_edge:                                      ; preds = %.lr.ph, %2
  ret void
}